target datalayout = "e-m:e-p270:32:32-p271:32:32-p272:64:64-i64:64-i128:128-f80:128-n8:16:32:64-S128"
target triple = "x86_64-pc-linux-gnu"

@.str.8 = private unnamed_addr constant [23 x i8] c"ui_last/import_last_%s\00", align 1

; Function Attrs: nounwind uwtable
define internal void @_metadata_save(ptr noundef %0, ptr noundef %1) #0 {
  %3 = alloca ptr, align 8
  %4 = alloca ptr, align 8
  %5 = alloca ptr, align 8
  %6 = alloca i32, align 4
  %7 = alloca ptr, align 8
  store ptr %0, ptr %3, align 8, !tbaa !11
  store ptr %1, ptr %4, align 8, !tbaa !6
  call void @llvm.lifetime.start.p0(i64 8, ptr %5) #7
  %8 = load ptr, ptr %3, align 8, !tbaa !11
  %9 = call ptr @gtk_widget_get_name(ptr noundef %8)
  store ptr %9, ptr %5, align 8, !tbaa !65
  call void @llvm.lifetime.start.p0(i64 4, ptr %6) #7
  %10 = load ptr, ptr %5, align 8, !tbaa !65
  %11 = call i32 @dt_metadata_get_keyid_by_name(ptr noundef %10)
  store i32 %11, ptr %6, align 4, !tbaa !61
  %12 = load i32, ptr %6, align 4, !tbaa !61
  %13 = icmp ne i32 %12, -1
  br i1 %13, label %14, label %23

14:                                               ; preds = %2
  call void @llvm.lifetime.start.p0(i64 8, ptr %7) #7
  %15 = load ptr, ptr %5, align 8, !tbaa !65
  %16 = call noalias ptr (ptr, ...) @g_strdup_printf(ptr noundef @.str.8, ptr noundef %15)
  store ptr %16, ptr %7, align 8, !tbaa !65
  %17 = load ptr, ptr %7, align 8, !tbaa !65
  %18 = load ptr, ptr %3, align 8, !tbaa !11
  %19 = call i64 @gtk_entry_get_type() #8
  %20 = call ptr @g_type_check_instance_cast(ptr noundef %18, i64 noundef %19)
  %21 = call ptr @gtk_entry_get_text(ptr noundef %20)
  call void @dt_conf_set_string(ptr noundef %17, ptr noundef %21)
  %22 = load ptr, ptr %7, align 8, !tbaa !65
  call void @g_free(ptr noundef %22)
  call void @llvm.lifetime.end.p0(i64 8, ptr %7) #7
  br label %23

23:                                               ; preds = %14, %2
  call void @llvm.lifetime.end.p0(i64 4, ptr %6) #7
  call void @llvm.lifetime.end.p0(i64 8, ptr %5) #7
  ret void
}