; Function Attrs: nounwind uwtable
define internal fastcc void @_metadata_save(ptr noundef %0) unnamed_addr #0 {
  %2 = tail call ptr @gtk_widget_get_name(ptr noundef %0) #10
  %3 = tail call i32 @dt_metadata_get_keyid_by_name(ptr noundef %2) #10
  %.not = icmp eq i32 %3, -1
  br i1 %.not, label %9, label %4

4:                                                ; preds = %1
  %5 = tail call noalias ptr (ptr, ...) @g_strdup_printf(ptr noundef nonnull @.str.8, ptr noundef %2) #10
  %6 = tail call i64 @gtk_entry_get_type() #11
  %7 = tail call ptr @g_type_check_instance_cast(ptr noundef %0, i64 noundef %6) #10
  %8 = tail call ptr @gtk_entry_get_text(ptr noundef %7) #10
  tail call void @dt_conf_set_string(ptr noundef %5, ptr noundef %8) #10
  tail call void @g_free(ptr noundef %5) #10
  br label %9

9:                                                ; preds = %4, %1
  ret void
}